target datalayout = "e-m:e-p270:32:32-p271:32:32-p272:64:64-i64:64-i128:128-f80:128-n8:16:32:64-S128"
target triple = "x86_64-pc-linux-gnu"

@.str = private unnamed_addr constant [137 x i8] c"generated/home/dtcxzyw/WorkSpace/Projects/compilers/llvm-opt-benchmark/bench/abseil-cpp/abseil-cpp/absl/base/internal/low_level_alloc.cc\00", align 1
@.str.1 = private unnamed_addr constant [20 x i8] c"Check %s failed: %s\00", align 1
@.str.15 = private unnamed_addr constant [17 x i8] c"arena != nullptr\00", align 1
@.str.16 = private unnamed_addr constant [24 x i8] c"must pass a valid arena\00", align 1

; Function Attrs: mustprogress noinline uwtable
define dso_local noundef ptr @_ZN4absl13base_internal13LowLevelAlloc14AllocWithArenaEmPNS1_5ArenaE(i64 noundef %0, ptr noundef %1) #6 section "malloc_hook" align 2 {
  %3 = alloca i64, align 8
  %4 = alloca ptr, align 8
  %5 = alloca ptr, align 8
  %6 = alloca ptr, align 8
  store i64 %0, ptr %3, align 8, !tbaa !33
  store ptr %1, ptr %4, align 8, !tbaa !14
  br label %7

7:                                                ; preds = %2
  %8 = load ptr, ptr %4, align 8, !tbaa !14
  %9 = icmp ne ptr %8, null
  %10 = xor i1 %9, true
  %11 = zext i1 %10 to i64
  %12 = call i64 @llvm.expect.i64(i64 %11, i64 0)
  %13 = icmp ne i64 %12, 0
  br i1 %13, label %14, label %20

14:                                               ; preds = %7
  br label %15

15:                                               ; preds = %14
  call void @llvm.lifetime.start.p0(i64 8, ptr %5) #14
  store ptr getelementptr (i8, ptr @.str, i64 118), ptr %5, align 8, !tbaa !38
  call void (i32, ptr, i32, ptr, ...) @_ZN4absl16raw_log_internal6RawLogENS_11LogSeverityEPKciS3_z(i32 noundef 3, ptr noundef getelementptr (i8, ptr @.str, i64 118), i32 noundef 622, ptr noundef @.str.1, ptr noundef @.str.15, ptr noundef @.str.16)
  br label %16

16:                                               ; preds = %15
  unreachable

17:                                               ; No predecessors!
  br label %18

18:                                               ; preds = %17
  call void @llvm.lifetime.end.p0(i64 8, ptr %5) #14
  br label %19

19:                                               ; preds = %18
  br label %20

20:                                               ; preds = %19, %7
  br label %21

21:                                               ; preds = %20
  call void @llvm.lifetime.start.p0(i64 8, ptr %6) #14
  %22 = load i64, ptr %3, align 8, !tbaa !33
  %23 = load ptr, ptr %4, align 8, !tbaa !14
  %24 = call noundef ptr @_ZN4absl13base_internalL16DoAllocWithArenaEmPNS0_13LowLevelAlloc5ArenaE(i64 noundef %22, ptr noundef %23)
  store ptr %24, ptr %6, align 8, !tbaa !9
  %25 = load ptr, ptr %6, align 8, !tbaa !9
  call void @llvm.lifetime.end.p0(i64 8, ptr %6) #14
  ret ptr %25
}