; Function Attrs: mustprogress noinline uwtable
define dso_local noundef ptr @_ZN4absl13base_internal13LowLevelAlloc14AllocWithArenaEmPNS1_5ArenaE(i64 noundef %0, ptr noundef %1) local_unnamed_addr #4 section "malloc_hook" align 2 {
  %.not = icmp eq ptr %1, null
  br i1 %.not, label %3, label %4, !prof !27

3:                                                ; preds = %2
  tail call void (i32, ptr, i32, ptr, ...) @_ZN4absl16raw_log_internal6RawLogENS_11LogSeverityEPKciS3_z(i32 noundef 3, ptr noundef nonnull getelementptr inbounds nuw (i8, ptr @.str, i64 118), i32 noundef 622, ptr noundef nonnull @.str.1, ptr noundef nonnull @.str.15, ptr noundef nonnull @.str.16)
  unreachable

4:                                                ; preds = %2
  %5 = tail call fastcc noundef ptr @_ZN4absl13base_internalL16DoAllocWithArenaEmPNS0_13LowLevelAlloc5ArenaE(i64 noundef %0, ptr noundef nonnull %1)
  ret ptr %5
}